; Function Attrs: mustprogress uwtable
define hidden void @_ZN10duckdb_re219ConvertLatin1ToUTF8ERKNS_11StringPieceEPNSt7__cxx1112basic_stringIcSt11char_traitsIcESaIcEEE(ptr noundef nonnull readonly align 8 captures(none) dereferenceable(16) %0, ptr noundef initializes((8, 16)) %1) local_unnamed_addr #9 personality ptr @__gxx_personality_v0 {
  %3 = alloca [4 x i8], align 1
  %4 = alloca i32, align 4
  call void @llvm.lifetime.start.p0(i64 4, ptr nonnull %3) #32
  %5 = getelementptr inbounds nuw i8, ptr %1, i64 8
  store i64 0, ptr %5, align 8, !tbaa !31
  %6 = load ptr, ptr %1, align 8, !tbaa !28
  store i8 0, ptr %6, align 1, !tbaa !27
  %7 = getelementptr inbounds nuw i8, ptr %0, i64 8
  %8 = load i64, ptr %7, align 8, !tbaa !97
  %.not = icmp eq i64 %8, 0
  br i1 %.not, label %._crit_edge, label %.lr.ph

._crit_edge:                                      ; preds = %_ZNSt7__cxx1112basic_stringIcSt11char_traitsIcESaIcEE6appendEPKcm.exit, %2
  call void @llvm.lifetime.end.p0(i64 4, ptr nonnull %3) #32
  ret void

.lr.ph:                                           ; preds = %2, %_ZNSt7__cxx1112basic_stringIcSt11char_traitsIcESaIcEE6appendEPKcm.exit
  %.07 = phi i64 [ %20, %_ZNSt7__cxx1112basic_stringIcSt11char_traitsIcESaIcEE6appendEPKcm.exit ], [ 0, %2 ]
  call void @llvm.lifetime.start.p0(i64 4, ptr nonnull %4) #32
  %9 = load ptr, ptr %0, align 8, !tbaa !93
  %10 = getelementptr inbounds nuw i8, ptr %9, i64 %.07
  %11 = load i8, ptr %10, align 1, !tbaa !27
  %12 = zext i8 %11 to i32
  store i32 %12, ptr %4, align 4, !tbaa !3
  %13 = call noundef i32 @_ZN10duckdb_re210runetocharEPcPKi(ptr noundef nonnull %3, ptr noundef nonnull %4)
  %14 = sext i32 %13 to i64
  %15 = load i64, ptr %5, align 8, !tbaa !31
  %16 = sub i64 4611686018427387903, %15
  %17 = icmp ult i64 %16, %14
  br i1 %17, label %18, label %_ZNSt7__cxx1112basic_stringIcSt11char_traitsIcESaIcEE6appendEPKcm.exit

18:                                               ; preds = %.lr.ph
  call void @_ZSt20__throw_length_errorPKc(ptr noundef nonnull @.str.22) #34
  unreachable

_ZNSt7__cxx1112basic_stringIcSt11char_traitsIcESaIcEE6appendEPKcm.exit: ; preds = %.lr.ph
  %19 = call noundef nonnull align 8 dereferenceable(32) ptr @_ZNSt7__cxx1112basic_stringIcSt11char_traitsIcESaIcEE9_M_appendEPKcm(ptr noundef nonnull align 8 dereferenceable(32) %1, ptr noundef nonnull %3, i64 noundef %14)
  call void @llvm.lifetime.end.p0(i64 4, ptr nonnull %4) #32
  %20 = add nuw i64 %.07, 1
  %21 = load i64, ptr %7, align 8, !tbaa !97
  %22 = icmp ult i64 %20, %21
  br i1 %22, label %.lr.ph, label %._crit_edge, !llvm.loop !212
}